; Function Attrs: mustprogress uwtable
define hidden noundef ptr @_ZN13proof_checker6mk_hypEjPKP4expr(ptr nocapture noundef nonnull readonly align 8 dereferenceable(156) %this, i32 noundef %num_hyps, ptr nocapture noundef readonly %hyps) local_unnamed_addr #4 align 2 {
entry:
  %cmp10.not = icmp eq i32 %num_hyps, 0
  br i1 %cmp10.not, label %for.end, label %for.body.lr.ph

for.body.lr.ph:                                   ; preds = %entry
  %m_hyp_fid9.i = getelementptr inbounds i8, ptr %this, i64 88
  %wide.trip.count = zext i32 %num_hyps to i64
  br label %for.body

for.body:                                         ; preds = %for.body.lr.ph, %for.inc
  %indvars.iv = phi i64 [ 0, %for.body.lr.ph ], [ %indvars.iv.next, %for.inc ]
  %result.011 = phi ptr [ null, %for.body.lr.ph ], [ %result.1, %for.inc ]
  %arrayidx = getelementptr inbounds ptr, ptr %hyps, i64 %indvars.iv
  %0 = load ptr, ptr %arrayidx, align 8
  %m_kind.i.i.i = getelementptr inbounds i8, ptr %0, i64 4
  %bf.load.i.i.i = load i32, ptr %m_kind.i.i.i, align 4
  %bf.clear.i.i.i = and i32 %bf.load.i.i.i, 65535
  %cmp.i.i = icmp eq i32 %bf.clear.i.i.i, 0
  br i1 %cmp.i.i, label %land.lhs.true.i, label %if.then

land.lhs.true.i:                                  ; preds = %for.body
  %m_decl.i.i.i = getelementptr inbounds i8, ptr %0, i64 16
  %1 = load ptr, ptr %m_decl.i.i.i, align 8
  %m_info.i.i.i = getelementptr inbounds i8, ptr %1, i64 24
  %2 = load ptr, ptr %m_info.i.i.i, align 8
  %cmp.i.i.i = icmp eq ptr %2, null
  br i1 %cmp.i.i.i, label %if.then, label %_ZNK3app13get_family_idEv.exit.thread.i

_ZNK3app13get_family_idEv.exit.thread.i:          ; preds = %land.lhs.true.i
  %3 = load i32, ptr %2, align 8
  %4 = load i32, ptr %m_hyp_fid9.i, align 8
  %cmp10.i = icmp eq i32 %3, %4
  br i1 %cmp10.i, label %_ZNK13proof_checker9match_nilEPK4expr.exit, label %if.then

_ZNK13proof_checker9match_nilEPK4expr.exit:       ; preds = %_ZNK3app13get_family_idEv.exit.thread.i
  %m_kind.i.i.i.i = getelementptr inbounds i8, ptr %2, i64 4
  %5 = load i32, ptr %m_kind.i.i.i.i, align 4
  %6 = icmp eq i32 %5, 2
  br i1 %6, label %for.inc, label %if.then

if.then:                                          ; preds = %land.lhs.true.i, %_ZNK3app13get_family_idEv.exit.thread.i, %for.body, %_ZNK13proof_checker9match_nilEPK4expr.exit
  %tobool.not = icmp eq ptr %result.011, null
  br i1 %tobool.not, label %for.inc, label %if.then2

if.then2:                                         ; preds = %if.then
  %7 = load ptr, ptr %this, align 8
  %8 = load i32, ptr %m_hyp_fid9.i, align 8
  %call.i = tail call noundef ptr @_ZN11ast_manager6mk_appEiiP4exprS1_(ptr noundef nonnull align 8 dereferenceable(976) %7, i32 noundef %8, i32 noundef 0, ptr noundef nonnull %result.011, ptr noundef nonnull %0)
  br label %for.inc

for.inc:                                          ; preds = %if.then, %_ZNK13proof_checker9match_nilEPK4expr.exit, %if.then2
  %result.1 = phi ptr [ %result.011, %_ZNK13proof_checker9match_nilEPK4expr.exit ], [ %call.i, %if.then2 ], [ %0, %if.then ]
  %indvars.iv.next = add nuw nsw i64 %indvars.iv, 1
  %exitcond.not = icmp eq i64 %indvars.iv.next, %wide.trip.count
  br i1 %exitcond.not, label %for.end, label %for.body, !llvm.loop !29

for.end:                                          ; preds = %for.inc, %entry
  %result.0.lcssa = phi ptr [ null, %entry ], [ %result.1, %for.inc ]
  %cmp9 = icmp eq ptr %result.0.lcssa, null
  %m_nil.i = getelementptr inbounds i8, ptr %this, i64 96
  %9 = load ptr, ptr %m_nil.i, align 8
  %retval.0 = select i1 %cmp9, ptr %9, ptr %result.0.lcssa
  ret ptr %retval.0
}